; Function Attrs: mustprogress nofree norecurse nosync nounwind memory(argmem: readwrite) uwtable
define internal fastcc void @_ZL28stbi__compute_transparency16P9stbi__pngPti(i32 %.0.val.0.val, i32 %.0.val.4.val, ptr captures(none) %.24.val, ptr noundef nonnull readonly captures(none) %0, i32 noundef %1) unnamed_addr #14 {
  %3 = mul i32 %.0.val.4.val, %.0.val.0.val
  %4 = icmp eq i32 %1, 2
  %.not8 = icmp eq i32 %3, 0
  br i1 %4, label %.preheader, label %.preheader1

.preheader1:                                      ; preds = %2
  br i1 %.not8, label %.loopexit, label %.lr.ph

.lr.ph:                                           ; preds = %.preheader1
  %5 = getelementptr inbounds nuw i8, ptr %0, i64 2
  %6 = getelementptr inbounds nuw i8, ptr %0, i64 4
  br label %14

.preheader:                                       ; preds = %2
  br i1 %.not8, label %.loopexit, label %.lr.ph7

.lr.ph7:                                          ; preds = %.preheader, %.lr.ph7
  %.06 = phi ptr [ %12, %.lr.ph7 ], [ %.24.val, %.preheader ]
  %.0225 = phi i32 [ %13, %.lr.ph7 ], [ 0, %.preheader ]
  %7 = load i16, ptr %.06, align 2, !tbaa !28
  %8 = load i16, ptr %0, align 2, !tbaa !28
  %9 = icmp ne i16 %7, %8
  %10 = sext i1 %9 to i16
  %11 = getelementptr inbounds nuw i8, ptr %.06, i64 2
  store i16 %10, ptr %11, align 2, !tbaa !28
  %12 = getelementptr inbounds nuw i8, ptr %.06, i64 4
  %13 = add nuw i32 %.0225, 1
  %exitcond10.not = icmp eq i32 %13, %3
  br i1 %exitcond10.not, label %.loopexit, label %.lr.ph7, !llvm.loop !207

14:                                               ; preds = %.lr.ph, %30
  %.14 = phi ptr [ %.24.val, %.lr.ph ], [ %31, %30 ]
  %.1233 = phi i32 [ 0, %.lr.ph ], [ %32, %30 ]
  %15 = load i16, ptr %.14, align 2, !tbaa !28
  %16 = load i16, ptr %0, align 2, !tbaa !28
  %17 = icmp eq i16 %15, %16
  br i1 %17, label %18, label %30

18:                                               ; preds = %14
  %19 = getelementptr inbounds nuw i8, ptr %.14, i64 2
  %20 = load i16, ptr %19, align 2, !tbaa !28
  %21 = load i16, ptr %5, align 2, !tbaa !28
  %22 = icmp eq i16 %20, %21
  br i1 %22, label %23, label %30

23:                                               ; preds = %18
  %24 = getelementptr inbounds nuw i8, ptr %.14, i64 4
  %25 = load i16, ptr %24, align 2, !tbaa !28
  %26 = load i16, ptr %6, align 2, !tbaa !28
  %27 = icmp eq i16 %25, %26
  br i1 %27, label %28, label %30

28:                                               ; preds = %23
  %29 = getelementptr inbounds nuw i8, ptr %.14, i64 6
  store i16 0, ptr %29, align 2, !tbaa !28
  br label %30

30:                                               ; preds = %28, %23, %18, %14
  %31 = getelementptr inbounds nuw i8, ptr %.14, i64 8
  %32 = add nuw i32 %.1233, 1
  %exitcond.not = icmp eq i32 %32, %3
  br i1 %exitcond.not, label %.loopexit, label %14, !llvm.loop !208

.loopexit:                                        ; preds = %30, %.lr.ph7, %.preheader1, %.preheader
  ret void
}